SF:/Users/christopherjoseph/projects/amiable/midimon/src/actions.rs
FN:83,_RNvMNtCsiU0fghnSnfU_7midimon7actionsNtB2_14ActionExecutor10launch_app
FN:109,_RNvMNtCsiU0fghnSnfU_7midimon7actionsNtB2_14ActionExecutor13execute_shell
FN:66,_RNvMNtCsiU0fghnSnfU_7midimon7actionsNtB2_14ActionExecutor17execute_keystroke
FN:28,_RNvMNtCsiU0fghnSnfU_7midimon7actionsNtB2_14ActionExecutor3new
FN:34,_RNvMNtCsiU0fghnSnfU_7midimon7actionsNtB2_14ActionExecutor7execute
FN:156,_RNvNtCsiU0fghnSnfU_7midimon7actions10parse_keys
FN:198,_RNvNtCsiU0fghnSnfU_7midimon7actions14parse_modifier
FN:208,_RNvNtCsiU0fghnSnfU_7midimon7actions18parse_mouse_button
FN:162,_RNvNtCsiU0fghnSnfU_7midimon7actions9parse_key
FN:130,_RNvXs_NtCsiU0fghnSnfU_7midimon7actionsNtB4_6ActionINtNtCs1FLWZe5rD62_4core7convert4FromNtNtB6_6config12ActionConfigE4from
FN:158,_RNCNvNtCsiU0fghnSnfU_7midimon7actions10parse_keys0B5_
FN:135,_RNCNvXs_NtCsiU0fghnSnfU_7midimon7actionsNtB6_6ActionINtNtCs1FLWZe5rD62_4core7convert4FromNtNtB8_6config12ActionConfigE4from0B8_
FN:158,_RNCNvNtCs1X6iq6JsZQO_7midimon7actions10parse_keys0B5_
FN:135,_RNCNvXs_NtCs1X6iq6JsZQO_7midimon7actionsNtB6_6ActionINtNtCs1FLWZe5rD62_4core7convert4FromNtNtB8_6config12ActionConfigE4from0B8_
FN:83,_RNvMNtCs1X6iq6JsZQO_7midimon7actionsNtB2_14ActionExecutor10launch_app
FN:109,_RNvMNtCs1X6iq6JsZQO_7midimon7actionsNtB2_14ActionExecutor13execute_shell
FN:66,_RNvMNtCs1X6iq6JsZQO_7midimon7actionsNtB2_14ActionExecutor17execute_keystroke
FN:28,_RNvMNtCs1X6iq6JsZQO_7midimon7actionsNtB2_14ActionExecutor3new
FN:34,_RNvMNtCs1X6iq6JsZQO_7midimon7actionsNtB2_14ActionExecutor7execute
FN:156,_RNvNtCs1X6iq6JsZQO_7midimon7actions10parse_keys
FN:198,_RNvNtCs1X6iq6JsZQO_7midimon7actions14parse_modifier
FN:208,_RNvNtCs1X6iq6JsZQO_7midimon7actions18parse_mouse_button
FN:162,_RNvNtCs1X6iq6JsZQO_7midimon7actions9parse_key
FN:130,_RNvXs_NtCs1X6iq6JsZQO_7midimon7actionsNtB4_6ActionINtNtCs1FLWZe5rD62_4core7convert4FromNtNtB6_6config12ActionConfigE4from
FNDA:0,_RNvMNtCsiU0fghnSnfU_7midimon7actionsNtB2_14ActionExecutor10launch_app
FNDA:0,_RNvMNtCsiU0fghnSnfU_7midimon7actionsNtB2_14ActionExecutor13execute_shell
FNDA:0,_RNvMNtCsiU0fghnSnfU_7midimon7actionsNtB2_14ActionExecutor17execute_keystroke
FNDA:0,_RNvMNtCsiU0fghnSnfU_7midimon7actionsNtB2_14ActionExecutor3new
FNDA:0,_RNvMNtCsiU0fghnSnfU_7midimon7actionsNtB2_14ActionExecutor7execute
FNDA:0,_RNvNtCsiU0fghnSnfU_7midimon7actions10parse_keys
FNDA:0,_RNvNtCsiU0fghnSnfU_7midimon7actions14parse_modifier
FNDA:0,_RNvNtCsiU0fghnSnfU_7midimon7actions18parse_mouse_button
FNDA:0,_RNvNtCsiU0fghnSnfU_7midimon7actions9parse_key
FNDA:0,_RNvXs_NtCsiU0fghnSnfU_7midimon7actionsNtB4_6ActionINtNtCs1FLWZe5rD62_4core7convert4FromNtNtB6_6config12ActionConfigE4from
FNDA:0,_RNCNvNtCsiU0fghnSnfU_7midimon7actions10parse_keys0B5_
FNDA:0,_RNCNvXs_NtCsiU0fghnSnfU_7midimon7actionsNtB6_6ActionINtNtCs1FLWZe5rD62_4core7convert4FromNtNtB8_6config12ActionConfigE4from0B8_
FNDA:0,_RNCNvNtCs1X6iq6JsZQO_7midimon7actions10parse_keys0B5_
FNDA:0,_RNCNvXs_NtCs1X6iq6JsZQO_7midimon7actionsNtB6_6ActionINtNtCs1FLWZe5rD62_4core7convert4FromNtNtB8_6config12ActionConfigE4from0B8_
FNDA:0,_RNvMNtCs1X6iq6JsZQO_7midimon7actionsNtB2_14ActionExecutor10launch_app
FNDA:0,_RNvMNtCs1X6iq6JsZQO_7midimon7actionsNtB2_14ActionExecutor13execute_shell
FNDA:0,_RNvMNtCs1X6iq6JsZQO_7midimon7actionsNtB2_14ActionExecutor17execute_keystroke
FNDA:0,_RNvMNtCs1X6iq6JsZQO_7midimon7actionsNtB2_14ActionExecutor3new
FNDA:0,_RNvMNtCs1X6iq6JsZQO_7midimon7actionsNtB2_14ActionExecutor7execute
FNDA:0,_RNvNtCs1X6iq6JsZQO_7midimon7actions10parse_keys
FNDA:0,_RNvNtCs1X6iq6JsZQO_7midimon7actions14parse_modifier
FNDA:0,_RNvNtCs1X6iq6JsZQO_7midimon7actions18parse_mouse_button
FNDA:0,_RNvNtCs1X6iq6JsZQO_7midimon7actions9parse_key
FNDA:0,_RNvXs_NtCs1X6iq6JsZQO_7midimon7actionsNtB4_6ActionINtNtCs1FLWZe5rD62_4core7convert4FromNtNtB6_6config12ActionConfigE4from
FNF:12
FNH:0
DA:28,0
DA:29,0
DA:30,0
DA:31,0
DA:32,0
DA:34,0
DA:35,0
DA:36,0
DA:37,0
DA:38,0
DA:39,0
DA:40,0
DA:41,0
DA:42,0
DA:43,0
DA:44,0
DA:45,0
DA:46,0
DA:47,0
DA:48,0
DA:49,0
DA:50,0
DA:51,0
DA:52,0
DA:54,0
DA:55,0
DA:56,0
DA:57,0
DA:58,0
DA:59,0
DA:60,0
DA:61,0
DA:64,0
DA:66,0
DA:68,0
DA:69,0
DA:70,0
DA:73,0
DA:74,0
DA:75,0
DA:78,0
DA:79,0
DA:80,0
DA:81,0
DA:83,0
DA:85,0
DA:86,0
DA:87,0
DA:88,0
DA:89,0
DA:90,0
DA:91,0
DA:107,0
DA:109,0
DA:111,0
DA:112,0
DA:113,0
DA:114,0
DA:115,0
DA:116,0
DA:117,0
DA:126,0
DA:130,0
DA:131,0
DA:132,0
DA:134,0
DA:135,0
DA:138,0
DA:139,0
DA:140,0
DA:141,0
DA:142,0
DA:144,0
DA:145,0
DA:146,0
DA:147,0
DA:148,0
DA:149,0
DA:150,0
DA:153,0
DA:156,0
DA:157,0
DA:158,0
DA:159,0
DA:160,0
DA:162,0
DA:163,0
DA:164,0
DA:165,0
DA:166,0
DA:167,0
DA:168,0
DA:169,0
DA:170,0
DA:171,0
DA:172,0
DA:173,0
DA:174,0
DA:175,0
DA:176,0
DA:177,0
DA:178,0
DA:179,0
DA:180,0
DA:181,0
DA:182,0
DA:183,0
DA:184,0
DA:185,0
DA:186,0
DA:187,0
DA:188,0
DA:189,0
DA:190,0
DA:191,0
DA:192,0
DA:194,0
DA:196,0
DA:198,0
DA:199,0
DA:200,0
DA:201,0
DA:202,0
DA:203,0
DA:204,0
DA:206,0
DA:208,0
DA:209,0
DA:210,0
DA:211,0
DA:212,0
DA:214,0
BRF:0
BRH:0
LF:134
LH:0
end_of_record
SF:/Users/christopherjoseph/projects/amiable/midimon/src/bin/led_diagnostic.rs
FN:23,_RNvCsbWszp0rMJsh_14led_diagnostic4main
FN:51,_RNCNvCsbWszp0rMJsh_14led_diagnostic4main0B3_
FN:66,_RNCNvCsbWszp0rMJsh_14led_diagnostic4mains_0B3_
FN:51,_RNCNvCscLYMkl5FbMx_14led_diagnostic4main0B3_
FN:66,_RNCNvCscLYMkl5FbMx_14led_diagnostic4mains_0B3_
FN:23,_RNvCscLYMkl5FbMx_14led_diagnostic4main
FNDA:0,_RNvCsbWszp0rMJsh_14led_diagnostic4main
FNDA:0,_RNCNvCsbWszp0rMJsh_14led_diagnostic4main0B3_
FNDA:0,_RNCNvCsbWszp0rMJsh_14led_diagnostic4mains_0B3_
FNDA:0,_RNCNvCscLYMkl5FbMx_14led_diagnostic4main0B3_
FNDA:0,_RNCNvCscLYMkl5FbMx_14led_diagnostic4mains_0B3_
FNDA:0,_RNvCscLYMkl5FbMx_14led_diagnostic4main
FNF:3
FNH:0
DA:23,0
DA:24,0
DA:25,0
DA:26,0
DA:27,0
DA:30,0
DA:31,0
DA:33,0
DA:34,0
DA:35,0
DA:36,0
DA:37,0
DA:38,0
DA:39,0
DA:40,0
DA:43,0
DA:46,0
DA:47,0
DA:49,0
DA:50,0
DA:51,0
DA:52,0
DA:54,0
DA:57,0
DA:58,0
DA:59,0
DA:60,0
DA:61,0
DA:63,0
DA:66,0
DA:67,0
DA:68,0
DA:69,0
DA:70,0
DA:71,0
DA:72,0
DA:73,0
DA:75,0
DA:76,0
DA:77,0
DA:78,0
DA:79,0
DA:80,0
DA:82,0
DA:83,0
DA:86,0
DA:87,0
DA:90,0
DA:91,0
DA:92,0
DA:93,0
DA:94,0
DA:95,0
DA:98,0
DA:100,0
DA:102,0
DA:103,0
DA:104,0
DA:105,0
DA:107,0
DA:110,0
DA:113,0
DA:115,0
DA:116,0
DA:117,0
DA:118,0
DA:119,0
DA:120,0
DA:121,0
DA:122,0
DA:123,0
DA:124,0
DA:125,0
DA:126,0
DA:127,0
DA:128,0
DA:129,0
DA:130,0
DA:131,0
DA:132,0
DA:134,0
DA:136,0
DA:137,0
DA:140,0
DA:141,0
DA:142,0
DA:145,0
DA:147,0
DA:148,0
DA:150,0
DA:151,0
DA:153,0
DA:154,0
DA:156,0
DA:157,0
DA:158,0
DA:161,0
DA:162,0
DA:163,0
DA:165,0
DA:168,0
DA:169,0
DA:170,0
DA:174,0
DA:176,0
DA:177,0
DA:178,0
DA:179,0
DA:180,0
DA:182,0
DA:183,0
DA:185,0
DA:186,0
DA:188,0
DA:189,0
DA:190,0
DA:193,0
DA:194,0
DA:195,0
DA:196,0
DA:197,0
DA:198,0
DA:199,0
DA:200,0
DA:202,0
DA:203,0
BRF:0
BRH:0
LF:129
LH:0
end_of_record
SF:/Users/christopherjoseph/projects/amiable/midimon/src/bin/led_tester.rs
FN:44,_RNCNvCsd4KG43Mdh7j_10led_tester4main0B3_
FN:48,_RNCNvCsd4KG43Mdh7j_10led_tester4mains_0B3_
FN:15,_RNvCsd4KG43Mdh7j_10led_tester4main
FN:44,_RNCNvCsjgARrrQSu4E_10led_tester4main0B3_
FN:48,_RNCNvCsjgARrrQSu4E_10led_tester4mains_0B3_
FN:15,_RNvCsjgARrrQSu4E_10led_tester4main
FNDA:0,_RNCNvCsd4KG43Mdh7j_10led_tester4main0B3_
FNDA:0,_RNCNvCsd4KG43Mdh7j_10led_tester4mains_0B3_
FNDA:0,_RNvCsd4KG43Mdh7j_10led_tester4main
FNDA:0,_RNCNvCsjgARrrQSu4E_10led_tester4main0B3_
FNDA:0,_RNCNvCsjgARrrQSu4E_10led_tester4mains_0B3_
FNDA:0,_RNvCsjgARrrQSu4E_10led_tester4main
FNF:3
FNH:0
DA:15,0
DA:16,0
DA:17,0
DA:18,0
DA:19,0
DA:20,0
DA:23,0
DA:24,0
DA:26,0
DA:27,0
DA:28,0
DA:29,0
DA:30,0
DA:31,0
DA:32,0
DA:34,0
DA:35,0
DA:38,0
DA:39,0
DA:40,0
DA:42,0
DA:43,0
DA:44,0
DA:45,0
DA:47,0
DA:48,0
DA:49,0
DA:50,0
DA:51,0
DA:52,0
DA:54,0
DA:55,0
DA:57,0
DA:58,0
DA:59,0
DA:60,0
DA:61,0
DA:64,0
DA:65,0
DA:66,0
DA:69,0
DA:70,0
DA:71,0
DA:72,0
DA:73,0
DA:74,0
DA:75,0
DA:76,0
DA:77,0
DA:78,0
DA:79,0
DA:82,0
DA:83,0
DA:84,0
DA:91,0
DA:92,0
DA:93,0
DA:94,0
DA:95,0
DA:96,0
DA:99,0
DA:100,0
DA:101,0
DA:102,0
DA:105,0
DA:106,0
DA:109,0
DA:110,0
DA:111,0
DA:114,0
DA:115,0
DA:116,0
DA:117,0
DA:119,0
DA:120,0
DA:123,0
DA:124,0
DA:126,0
DA:127,0
DA:129,0
DA:130,0
DA:131,0
DA:132,0
DA:133,0
DA:134,0
DA:135,0
DA:138,0
DA:139,0
DA:140,0
DA:141,0
DA:142,0
DA:145,0
DA:146,0
DA:147,0
DA:148,0
DA:149,0
DA:150,0
DA:151,0
DA:155,0
DA:156,0
DA:157,0
DA:158,0
DA:159,0
DA:161,0
DA:162,0
DA:164,0
DA:165,0
BRF:0
BRH:0
LF:110
LH:0
end_of_record
SF:/Users/christopherjoseph/projects/amiable/midimon/src/bin/midi_diagnostic.rs
FN:32,_RNCNCNvCs7n9cXoYHqPn_15midi_diagnostic4mains_00B5_
FN:30,_RNCNvCs7n9cXoYHqPn_15midi_diagnostic4main0B3_
FN:59,_RNCNvCs7n9cXoYHqPn_15midi_diagnostic4mains0_0B3_
FN:234,_RNCNvCs7n9cXoYHqPn_15midi_diagnostic4mains1_0B3_
FN:31,_RNCNvCs7n9cXoYHqPn_15midi_diagnostic4mains_0B3_
FN:9,_RNvCs7n9cXoYHqPn_15midi_diagnostic4main
FN:9,_RNvCsj2ZJ1YmNEUr_15midi_diagnostic4main
FN:32,_RNCNCNvCsj2ZJ1YmNEUr_15midi_diagnostic4mains_00B5_
FN:30,_RNCNvCsj2ZJ1YmNEUr_15midi_diagnostic4main0B3_
FN:59,_RNCNvCsj2ZJ1YmNEUr_15midi_diagnostic4mains0_0B3_
FN:234,_RNCNvCsj2ZJ1YmNEUr_15midi_diagnostic4mains1_0B3_
FN:31,_RNCNvCsj2ZJ1YmNEUr_15midi_diagnostic4mains_0B3_
FNDA:0,_RNCNCNvCs7n9cXoYHqPn_15midi_diagnostic4mains_00B5_
FNDA:0,_RNCNvCs7n9cXoYHqPn_15midi_diagnostic4main0B3_
FNDA:0,_RNCNvCs7n9cXoYHqPn_15midi_diagnostic4mains0_0B3_
FNDA:0,_RNCNvCs7n9cXoYHqPn_15midi_diagnostic4mains1_0B3_
FNDA:0,_RNCNvCs7n9cXoYHqPn_15midi_diagnostic4mains_0B3_
FNDA:0,_RNvCs7n9cXoYHqPn_15midi_diagnostic4main
FNDA:0,_RNvCsj2ZJ1YmNEUr_15midi_diagnostic4main
FNDA:0,_RNCNCNvCsj2ZJ1YmNEUr_15midi_diagnostic4mains_00B5_
FNDA:0,_RNCNvCsj2ZJ1YmNEUr_15midi_diagnostic4main0B3_
FNDA:0,_RNCNvCsj2ZJ1YmNEUr_15midi_diagnostic4mains0_0B3_
FNDA:0,_RNCNvCsj2ZJ1YmNEUr_15midi_diagnostic4mains1_0B3_
FNDA:0,_RNCNvCsj2ZJ1YmNEUr_15midi_diagnostic4mains_0B3_
FNF:6
FNH:0
DA:9,0
DA:10,0
DA:11,0
DA:12,0
DA:13,0
DA:15,0
DA:16,0
DA:19,0
DA:20,0
DA:21,0
DA:22,0
DA:23,0
DA:25,0
DA:28,0
DA:29,0
DA:30,0
DA:31,0
DA:32,0
DA:33,0
DA:34,0
DA:35,0
DA:36,0
DA:37,0
DA:39,0
DA:40,0
DA:42,0
DA:43,0
DA:44,0
DA:48,0
DA:49,0
DA:50,0
DA:52,0
DA:53,0
DA:54,0
DA:56,0
DA:57,0
DA:59,0
DA:60,0
DA:61,0
DA:62,0
DA:64,0
DA:65,0
DA:66,0
DA:68,0
DA:71,0
DA:72,0
DA:73,0
DA:75,0
DA:76,0
DA:77,0
DA:78,0
DA:79,0
DA:80,0
DA:81,0
DA:82,0
DA:83,0
DA:84,0
DA:85,0
DA:86,0
DA:87,0
DA:88,0
DA:90,0
DA:91,0
DA:92,0
DA:93,0
DA:94,0
DA:95,0
DA:96,0
DA:97,0
DA:98,0
DA:99,0
DA:105,0
DA:106,0
DA:108,0
DA:109,0
DA:110,0
DA:111,0
DA:112,0
DA:113,0
DA:114,0
DA:115,0
DA:116,0
DA:117,0
DA:118,0
DA:119,0
DA:120,0
DA:121,0
DA:122,0
DA:123,0
DA:124,0
DA:127,0
DA:128,0
DA:129,0
DA:130,0
DA:131,0
DA:132,0
DA:133,0
DA:134,0
DA:135,0
DA:136,0
DA:137,0
DA:138,0
DA:139,0
DA:140,0
DA:141,0
DA:142,0
DA:144,0
DA:145,0
DA:146,0
DA:147,0
DA:148,0
DA:149,0
DA:150,0
DA:151,0
DA:152,0
DA:153,0
DA:154,0
DA:155,0
DA:156,0
DA:157,0
DA:161,0
DA:162,0
DA:163,0
DA:165,0
DA:166,0
DA:167,0
DA:168,0
DA:176,0
DA:177,0
DA:178,0
DA:179,0
DA:180,0
DA:181,0
DA:182,0
DA:183,0
DA:184,0
DA:185,0
DA:186,0
DA:187,0
DA:189,0
DA:190,0
DA:191,0
DA:192,0
DA:193,0
DA:194,0
DA:195,0
DA:196,0
DA:198,0
DA:199,0
DA:200,0
DA:201,0
DA:202,0
DA:203,0
DA:204,0
DA:205,0
DA:207,0
DA:209,0
DA:210,0
DA:211,0
DA:212,0
DA:213,0
DA:214,0
DA:215,0
DA:216,0
DA:217,0
DA:218,0
DA:219,0
DA:220,0
DA:221,0
DA:222,0
DA:223,0
DA:224,0
DA:228,0
DA:231,0
DA:232,0
DA:233,0
DA:234,0
DA:235,0
DA:236,0
DA:237,0
DA:238,0
DA:240,0
DA:241,0
DA:242,0
DA:245,0
DA:248,0
DA:250,0
DA:253,0
BRF:0
BRH:0
LF:194
LH:0
end_of_record
SF:/Users/christopherjoseph/projects/amiable/midimon/src/bin/midi_simulator.rs
FN:127,_RNCNvCsiBhd8zZfavI_14midi_simulator4main0B3_
FN:166,_RNCNvCsiBhd8zZfavI_14midi_simulator4mains0_0B3_
FN:200,_RNCNvCsiBhd8zZfavI_14midi_simulator4mains1_0B3_
FN:145,_RNCNvCsiBhd8zZfavI_14midi_simulator4mains_0B3_
FN:296,_RNvCsiBhd8zZfavI_14midi_simulator10print_help
FN:428,_RNvCsiBhd8zZfavI_14midi_simulator18run_chord_scenario
FN:388,_RNvCsiBhd8zZfavI_14midi_simulator19run_timing_scenario
FN:461,_RNvCsiBhd8zZfavI_14midi_simulator20run_complex_scenario
FN:439,_RNvCsiBhd8zZfavI_14midi_simulator20run_encoder_scenario
FN:367,_RNvCsiBhd8zZfavI_14midi_simulator21run_velocity_scenario
FN:417,_RNvCsiBhd8zZfavI_14midi_simulator22run_doubletap_scenario
FN:20,_RNvCsiBhd8zZfavI_14midi_simulator4main
FN:323,_RNvCsiBhd8zZfavI_14midi_simulator8run_demo
FN:296,_RNvCscWtGBkheOoe_14midi_simulator10print_help
FN:428,_RNvCscWtGBkheOoe_14midi_simulator18run_chord_scenario
FN:388,_RNvCscWtGBkheOoe_14midi_simulator19run_timing_scenario
FN:461,_RNvCscWtGBkheOoe_14midi_simulator20run_complex_scenario
FN:439,_RNvCscWtGBkheOoe_14midi_simulator20run_encoder_scenario
FN:367,_RNvCscWtGBkheOoe_14midi_simulator21run_velocity_scenario
FN:417,_RNvCscWtGBkheOoe_14midi_simulator22run_doubletap_scenario
FN:20,_RNvCscWtGBkheOoe_14midi_simulator4main
FN:323,_RNvCscWtGBkheOoe_14midi_simulator8run_demo
FN:127,_RNCNvCscWtGBkheOoe_14midi_simulator4main0B3_
FN:166,_RNCNvCscWtGBkheOoe_14midi_simulator4mains0_0B3_
FN:200,_RNCNvCscWtGBkheOoe_14midi_simulator4mains1_0B3_
FN:145,_RNCNvCscWtGBkheOoe_14midi_simulator4mains_0B3_
FNDA:0,_RNCNvCsiBhd8zZfavI_14midi_simulator4main0B3_
FNDA:0,_RNCNvCsiBhd8zZfavI_14midi_simulator4mains0_0B3_
FNDA:0,_RNCNvCsiBhd8zZfavI_14midi_simulator4mains1_0B3_
FNDA:0,_RNCNvCsiBhd8zZfavI_14midi_simulator4mains_0B3_
FNDA:0,_RNvCsiBhd8zZfavI_14midi_simulator10print_help
FNDA:0,_RNvCsiBhd8zZfavI_14midi_simulator18run_chord_scenario
FNDA:0,_RNvCsiBhd8zZfavI_14midi_simulator19run_timing_scenario
FNDA:0,_RNvCsiBhd8zZfavI_14midi_simulator20run_complex_scenario
FNDA:0,_RNvCsiBhd8zZfavI_14midi_simulator20run_encoder_scenario
FNDA:0,_RNvCsiBhd8zZfavI_14midi_simulator21run_velocity_scenario
FNDA:0,_RNvCsiBhd8zZfavI_14midi_simulator22run_doubletap_scenario
FNDA:0,_RNvCsiBhd8zZfavI_14midi_simulator4main
FNDA:0,_RNvCsiBhd8zZfavI_14midi_simulator8run_demo
FNDA:0,_RNvCscWtGBkheOoe_14midi_simulator10print_help
FNDA:0,_RNvCscWtGBkheOoe_14midi_simulator18run_chord_scenario
FNDA:0,_RNvCscWtGBkheOoe_14midi_simulator19run_timing_scenario
FNDA:0,_RNvCscWtGBkheOoe_14midi_simulator20run_complex_scenario
FNDA:0,_RNvCscWtGBkheOoe_14midi_simulator20run_encoder_scenario
FNDA:0,_RNvCscWtGBkheOoe_14midi_simulator21run_velocity_scenario
FNDA:0,_RNvCscWtGBkheOoe_14midi_simulator22run_doubletap_scenario
FNDA:0,_RNvCscWtGBkheOoe_14midi_simulator4main
FNDA:0,_RNvCscWtGBkheOoe_14midi_simulator8run_demo
FNDA:0,_RNCNvCscWtGBkheOoe_14midi_simulator4main0B3_
FNDA:0,_RNCNvCscWtGBkheOoe_14midi_simulator4mains0_0B3_
FNDA:0,_RNCNvCscWtGBkheOoe_14midi_simulator4mains1_0B3_
FNDA:0,_RNCNvCscWtGBkheOoe_14midi_simulator4mains_0B3_
FNF:13
FNH:0
DA:20,0
DA:21,0
DA:22,0
DA:23,0
DA:24,0
DA:26,0
DA:27,0
DA:29,0
DA:32,0
DA:33,0
DA:35,0
DA:36,0
DA:37,0
DA:38,0
DA:40,0
DA:41,0
DA:42,0
DA:43,0
DA:45,0
DA:46,0
DA:48,0
DA:49,0
DA:50,0
DA:51,0
DA:52,0
DA:54,0
DA:55,0
DA:56,0
DA:57,0
DA:58,0
DA:59,0
DA:60,0
DA:61,0
DA:62,0
DA:63,0
DA:64,0
DA:65,0
DA:66,0
DA:71,0
DA:72,0
DA:73,0
DA:74,0
DA:75,0
DA:76,0
DA:77,0
DA:78,0
DA:79,0
DA:80,0
DA:81,0
DA:82,0
DA:83,0
DA:84,0
DA:88,0
DA:89,0
DA:90,0
DA:91,0
DA:92,0
DA:93,0
DA:94,0
DA:95,0
DA:96,0
DA:97,0
DA:98,0
DA:99,0
DA:100,0
DA:101,0
DA:102,0
DA:103,0
DA:104,0
DA:105,0
DA:106,0
DA:107,0
DA:108,0
DA:109,0
DA:110,0
DA:111,0
DA:112,0
DA:113,0
DA:114,0
DA:115,0
DA:116,0
DA:117,0
DA:121,0
DA:122,0
DA:123,0
DA:124,0
DA:125,0
DA:126,0
DA:127,0
DA:129,0
DA:130,0
DA:131,0
DA:132,0
DA:133,0
DA:134,0
DA:135,0
DA:139,0
DA:140,0
DA:141,0
DA:142,0
DA:143,0
DA:144,0
DA:145,0
DA:147,0
DA:148,0
DA:149,0
DA:150,0
DA:151,0
DA:152,0
DA:153,0
DA:154,0
DA:158,0
DA:159,0
DA:160,0
DA:161,0
DA:162,0
DA:164,0
DA:165,0
DA:166,0
DA:167,0
DA:169,0
DA:170,0
DA:171,0
DA:172,0
DA:174,0
DA:175,0
DA:176,0
DA:177,0
DA:178,0
DA:179,0
DA:180,0
DA:181,0
DA:185,0
DA:186,0
DA:187,0
DA:188,0
DA:189,0
DA:191,0
DA:192,0
DA:193,0
DA:194,0
DA:196,0
DA:197,0
DA:200,0
DA:202,0
DA:203,0
DA:204,0
DA:205,0
DA:206,0
DA:207,0
DA:208,0
DA:209,0
DA:213,0
DA:214,0
DA:215,0
DA:216,0
DA:217,0
DA:218,0
DA:219,0
DA:220,0
DA:221,0
DA:222,0
DA:223,0
DA:227,0
DA:228,0
DA:229,0
DA:230,0
DA:231,0
DA:232,0
DA:233,0
DA:234,0
DA:235,0
DA:236,0
DA:237,0
DA:238,0
DA:239,0
DA:240,0
DA:241,0
DA:242,0
DA:246,0
DA:247,0
DA:248,0
DA:249,0
DA:250,0
DA:251,0
DA:252,0
DA:253,0
DA:254,0
DA:255,0
DA:256,0
DA:260,0
DA:261,0
DA:262,0
DA:263,0
DA:264,0
DA:266,0
DA:267,0
DA:268,0
DA:269,0
DA:270,0
DA:271,0
DA:272,0
DA:273,0
DA:274,0
DA:275,0
DA:276,0
DA:278,0
DA:279,0
DA:280,0
DA:281,0
DA:282,0
DA:283,0
DA:284,0
DA:285,0
DA:289,0
DA:290,0
DA:291,0
DA:294,0
DA:296,0
DA:297,0
DA:298,0
DA:299,0
DA:300,0
DA:301,0
DA:302,0
DA:303,0
DA:304,0
DA:305,0
DA:306,0
DA:307,0
DA:308,0
DA:309,0
DA:310,0
DA:311,0
DA:312,0
DA:313,0
DA:314,0
DA:315,0
DA:316,0
DA:317,0
DA:318,0
DA:319,0
DA:320,0
DA:321,0
DA:323,0
DA:324,0
DA:325,0
DA:326,0
DA:327,0
DA:328,0
DA:329,0
DA:330,0
DA:331,0
DA:332,0
DA:333,0
DA:335,0
DA:336,0
DA:337,0
DA:338,0
DA:339,0
DA:340,0
DA:342,0
DA:343,0
DA:344,0
DA:345,0
DA:346,0
DA:347,0
DA:348,0
DA:350,0
DA:351,0
DA:352,0
DA:353,0
DA:354,0
DA:355,0
DA:356,0
DA:358,0
DA:359,0
DA:360,0
DA:361,0
DA:362,0
DA:363,0
DA:364,0
DA:365,0
DA:367,0
DA:368,0
DA:369,0
DA:371,0
DA:372,0
DA:373,0
DA:374,0
DA:376,0
DA:377,0
DA:378,0
DA:379,0
DA:381,0
DA:382,0
DA:383,0
DA:385,0
DA:386,0
DA:388,0
DA:389,0
DA:392,0
DA:393,0
DA:394,0
DA:395,0
DA:396,0
DA:397,0
DA:400,0
DA:401,0
DA:402,0
DA:403,0
DA:404,0
DA:405,0
DA:408,0
DA:409,0
DA:410,0
DA:411,0
DA:412,0
DA:414,0
DA:415,0
DA:417,0
DA:418,0
DA:419,0
DA:420,0
DA:421,0
DA:422,0
DA:423,0
DA:424,0
DA:425,0
DA:426,0
DA:428,0
DA:429,0
DA:430,0
DA:431,0
DA:432,0
DA:433,0
DA:434,0
DA:435,0
DA:436,0
DA:437,0
DA:439,0
DA:440,0
DA:442,0
DA:443,0
DA:444,0
DA:445,0
DA:446,0
DA:447,0
DA:449,0
DA:451,0
DA:452,0
DA:453,0
DA:454,0
DA:455,0
DA:456,0
DA:458,0
DA:459,0
DA:461,0
DA:462,0
DA:464,0
DA:467,0
DA:468,0
DA:469,0
DA:470,0
DA:471,0
DA:473,0
DA:476,0
DA:477,0
DA:478,0
DA:479,0
DA:480,0
DA:481,0
DA:482,0
DA:483,0
DA:484,0
DA:486,0
DA:489,0
DA:490,0
DA:491,0
DA:492,0
DA:493,0
DA:494,0
DA:495,0
DA:496,0
DA:497,0
DA:499,0
DA:500,0
BRF:0
BRH:0
LF:391
LH:0
end_of_record
SF:/Users/christopherjoseph/projects/amiable/midimon/src/bin/pad_mapper.rs
FN:68,_RNCNvCs55EueQgo3V_10pad_mapper4main0B3_
FN:89,_RNCNvCs55EueQgo3V_10pad_mapper4mains0_0B3_
FN:76,_RNCNvCs55EueQgo3V_10pad_mapper4mains_0B3_
FN:21,_RNvCs55EueQgo3V_10pad_mapper4main
FN:21,_RNvCskJCcBSDJT9t_10pad_mapper4main
FN:68,_RNCNvCskJCcBSDJT9t_10pad_mapper4main0B3_
FN:89,_RNCNvCskJCcBSDJT9t_10pad_mapper4mains0_0B3_
FN:76,_RNCNvCskJCcBSDJT9t_10pad_mapper4mains_0B3_
FNDA:0,_RNCNvCs55EueQgo3V_10pad_mapper4main0B3_
FNDA:0,_RNCNvCs55EueQgo3V_10pad_mapper4mains0_0B3_
FNDA:0,_RNCNvCs55EueQgo3V_10pad_mapper4mains_0B3_
FNDA:0,_RNvCs55EueQgo3V_10pad_mapper4main
FNDA:0,_RNvCskJCcBSDJT9t_10pad_mapper4main
FNDA:0,_RNCNvCskJCcBSDJT9t_10pad_mapper4main0B3_
FNDA:0,_RNCNvCskJCcBSDJT9t_10pad_mapper4mains0_0B3_
FNDA:0,_RNCNvCskJCcBSDJT9t_10pad_mapper4mains_0B3_
FNF:4
FNH:0
DA:21,0
DA:22,0
DA:23,0
DA:24,0
DA:25,0
DA:26,0
DA:29,0
DA:30,0
DA:32,0
DA:33,0
DA:34,0
DA:35,0
DA:36,0
DA:37,0
DA:38,0
DA:40,0
DA:41,0
DA:42,0
DA:43,0
DA:44,0
DA:45,0
DA:47,0
DA:48,0
DA:49,0
DA:51,0
DA:52,0
DA:55,0
DA:56,0
DA:59,0
DA:60,0
DA:63,0
DA:64,0
DA:66,0
DA:67,0
DA:68,0
DA:69,0
DA:71,0
DA:72,0
DA:75,0
DA:76,0
DA:77,0
DA:78,0
DA:79,0
DA:80,0
DA:81,0
DA:82,0
DA:83,0
DA:84,0
DA:87,0
DA:88,0
DA:89,0
DA:90,0
DA:92,0
DA:93,0
DA:94,0
DA:95,0
DA:96,0
DA:99,0
DA:101,0
DA:102,0
DA:103,0
DA:104,0
DA:105,0
DA:106,0
DA:108,0
DA:109,0
DA:110,0
DA:111,0
DA:112,0
DA:113,0
DA:115,0
DA:116,0
DA:117,0
DA:118,0
DA:119,0
DA:123,0
DA:124,0
DA:125,0
DA:126,0
DA:127,0
DA:128,0
DA:129,0
DA:131,0
DA:132,0
DA:133,0
DA:134,0
DA:135,0
DA:136,0
DA:137,0
DA:138,0
DA:139,0
DA:140,0
DA:141,0
DA:142,0
DA:143,0
DA:144,0
DA:145,0
DA:146,0
DA:147,0
DA:150,0
DA:152,0
DA:153,0
DA:154,0
DA:155,0
DA:156,0
DA:159,0
DA:160,0
DA:163,0
DA:165,0
DA:166,0
DA:167,0
DA:168,0
DA:170,0
DA:171,0
DA:173,0
DA:174,0
DA:175,0
DA:177,0
DA:178,0
DA:179,0
DA:181,0
DA:182,0
DA:183,0
DA:184,0
DA:185,0
DA:187,0
DA:188,0
DA:189,0
DA:191,0
DA:195,0
DA:196,0
DA:197,0
DA:198,0
DA:199,0
DA:200,0
DA:201,0
DA:202,0
DA:203,0
DA:204,0
DA:205,0
DA:206,0
DA:207,0
DA:208,0
DA:209,0
DA:210,0
DA:213,0
DA:214,0
DA:215,0
DA:217,0
DA:218,0
BRF:0
BRH:0
LF:154
LH:0
end_of_record
SF:/Users/christopherjoseph/projects/amiable/midimon/src/bin/test_midi.rs
FN:9,_RNvCscKr1pAQi1qu_9test_midi4main
FN:9,_RNvCslQ6sAaMgPxL_9test_midi4main
FNDA:0,_RNvCscKr1pAQi1qu_9test_midi4main
FNDA:0,_RNvCslQ6sAaMgPxL_9test_midi4main
FNF:1
FNH:0
DA:9,0
DA:10,0
DA:11,0
DA:12,0
DA:13,0
DA:14,0
DA:15,0
DA:16,0
DA:19,0
DA:20,0
DA:21,0
DA:23,0
DA:26,0
DA:27,0
DA:28,0
DA:29,0
DA:30,0
DA:31,0
DA:32,0
DA:35,0
DA:36,0
DA:37,0
DA:39,0
DA:43,0
DA:44,0
DA:45,0
DA:46,0
BRF:0
BRH:0
LF:27
LH:0
end_of_record
SF:/Users/christopherjoseph/projects/amiable/midimon/src/config.rs
FN:60,_RNvMNtCs8GZMN1bvRMa_7midimon6configNtB2_6Config4load
FN:73,_RNvMNtCs8GZMN1bvRMa_7midimon6configNtB2_6Config4save
FN:79,_RNvMNtCs8GZMN1bvRMa_7midimon6configNtB2_6Config7default
FN:60,_RNvMNtCsiU0fghnSnfU_7midimon6configNtB2_6Config4load
FN:73,_RNvMNtCsiU0fghnSnfU_7midimon6configNtB2_6Config4save
FN:79,_RNvMNtCsiU0fghnSnfU_7midimon6configNtB2_6Config7default
FN:60,_RNvMNtCs8ppG7rHrFc8_7midimon6configNtB2_6Config4load
FN:73,_RNvMNtCs8ppG7rHrFc8_7midimon6configNtB2_6Config4save
FN:79,_RNvMNtCs8ppG7rHrFc8_7midimon6configNtB2_6Config7default
FN:60,_RNvMNtCs1X6iq6JsZQO_7midimon6configNtB2_6Config4load
FN:73,_RNvMNtCs1X6iq6JsZQO_7midimon6configNtB2_6Config4save
FN:79,_RNvMNtCs1X6iq6JsZQO_7midimon6configNtB2_6Config7default
FNDA:4,_RNvMNtCs8GZMN1bvRMa_7midimon6configNtB2_6Config4load
FNDA:0,_RNvMNtCs8GZMN1bvRMa_7midimon6configNtB2_6Config4save
FNDA:0,_RNvMNtCs8GZMN1bvRMa_7midimon6configNtB2_6Config7default
FNDA:0,_RNvMNtCsiU0fghnSnfU_7midimon6configNtB2_6Config4load
FNDA:0,_RNvMNtCsiU0fghnSnfU_7midimon6configNtB2_6Config4save
FNDA:0,_RNvMNtCsiU0fghnSnfU_7midimon6configNtB2_6Config7default
FNDA:0,_RNvMNtCs8ppG7rHrFc8_7midimon6configNtB2_6Config4load
FNDA:0,_RNvMNtCs8ppG7rHrFc8_7midimon6configNtB2_6Config4save
FNDA:0,_RNvMNtCs8ppG7rHrFc8_7midimon6configNtB2_6Config7default
FNDA:0,_RNvMNtCs1X6iq6JsZQO_7midimon6configNtB2_6Config4load
FNDA:0,_RNvMNtCs1X6iq6JsZQO_7midimon6configNtB2_6Config4save
FNDA:0,_RNvMNtCs1X6iq6JsZQO_7midimon6configNtB2_6Config7default
FNF:3
FNH:1
DA:60,4
DA:62,4
DA:63,4
DA:64,4
DA:66,0
DA:67,0
DA:68,0
DA:69,0
DA:71,4
DA:73,0
DA:74,0
DA:75,0
DA:76,0
DA:77,0
DA:79,0
DA:80,0
DA:81,0
DA:82,0
DA:83,0
DA:84,0
DA:85,0
DA:86,0
DA:87,0
DA:88,0
DA:89,0
DA:90,0
DA:91,0
DA:92,0
DA:93,0
DA:94,0
DA:95,0
DA:96,0
DA:97,0
DA:98,0
DA:99,0
DA:100,0
DA:101,0
DA:102,0
DA:103,0
DA:104,0
DA:105,0
DA:106,0
DA:107,0
DA:108,0
DA:109,0
DA:110,0
DA:111,0
DA:112,0
DA:113,0
DA:114,0
DA:115,0
DA:116,0
BRF:0
BRH:0
LF:52
LH:5
end_of_record
SF:/Users/christopherjoseph/projects/amiable/midimon/src/main.rs
FN:226,_RNvCsiU0fghnSnfU_7midimon4main
FN:127,_RNvMCsiU0fghnSnfU_7midimonNtB2_12MidiMacroPad14process_events
FN:52,_RNvMCsiU0fghnSnfU_7midimonNtB2_12MidiMacroPad15list_midi_ports
FN:193,_RNvMCsiU0fghnSnfU_7midimonNtB2_12MidiMacroPad17check_mode_change
FN:39,_RNvMCsiU0fghnSnfU_7midimonNtB2_12MidiMacroPad3new
FN:207,_RNvMCsiU0fghnSnfU_7midimonNtB2_12MidiMacroPad3run
FN:71,_RNvMCsiU0fghnSnfU_7midimonNtB2_12MidiMacroPad7connect
FN:171,_RNvMCsiU0fghnSnfU_7midimonNtB2_12MidiMacroPad9log_event
FN:240,_RNCNvCsiU0fghnSnfU_7midimon4main0B3_
FN:153,_RNCNvMCsiU0fghnSnfU_7midimonNtB4_12MidiMacroPad14process_events0B4_
FN:213,_RNCNvMCsiU0fghnSnfU_7midimonNtB4_12MidiMacroPad3run0B4_
FN:91,_RNCNvMCsiU0fghnSnfU_7midimonNtB4_12MidiMacroPad7connect0B4_
FN:120,_RNCNvMCsiU0fghnSnfU_7midimonNtB4_12MidiMacroPad7connects_0B4_
FN:240,_RNCNvCs1X6iq6JsZQO_7midimon4main0B3_
FN:153,_RNCNvMCs1X6iq6JsZQO_7midimonNtB4_12MidiMacroPad14process_events0B4_
FN:213,_RNCNvMCs1X6iq6JsZQO_7midimonNtB4_12MidiMacroPad3run0B4_
FN:91,_RNCNvMCs1X6iq6JsZQO_7midimonNtB4_12MidiMacroPad7connect0B4_
FN:120,_RNCNvMCs1X6iq6JsZQO_7midimonNtB4_12MidiMacroPad7connects_0B4_
FN:226,_RNvCs1X6iq6JsZQO_7midimon4main
FN:127,_RNvMCs1X6iq6JsZQO_7midimonNtB2_12MidiMacroPad14process_events
FN:52,_RNvMCs1X6iq6JsZQO_7midimonNtB2_12MidiMacroPad15list_midi_ports
FN:193,_RNvMCs1X6iq6JsZQO_7midimonNtB2_12MidiMacroPad17check_mode_change
FN:39,_RNvMCs1X6iq6JsZQO_7midimonNtB2_12MidiMacroPad3new
FN:207,_RNvMCs1X6iq6JsZQO_7midimonNtB2_12MidiMacroPad3run
FN:71,_RNvMCs1X6iq6JsZQO_7midimonNtB2_12MidiMacroPad7connect
FN:171,_RNvMCs1X6iq6JsZQO_7midimonNtB2_12MidiMacroPad9log_event
FNDA:0,_RNvCsiU0fghnSnfU_7midimon4main
FNDA:0,_RNvMCsiU0fghnSnfU_7midimonNtB2_12MidiMacroPad14process_events
FNDA:0,_RNvMCsiU0fghnSnfU_7midimonNtB2_12MidiMacroPad15list_midi_ports
FNDA:0,_RNvMCsiU0fghnSnfU_7midimonNtB2_12MidiMacroPad17check_mode_change
FNDA:0,_RNvMCsiU0fghnSnfU_7midimonNtB2_12MidiMacroPad3new
FNDA:0,_RNvMCsiU0fghnSnfU_7midimonNtB2_12MidiMacroPad3run
FNDA:0,_RNvMCsiU0fghnSnfU_7midimonNtB2_12MidiMacroPad7connect
FNDA:0,_RNvMCsiU0fghnSnfU_7midimonNtB2_12MidiMacroPad9log_event
FNDA:0,_RNCNvCsiU0fghnSnfU_7midimon4main0B3_
FNDA:0,_RNCNvMCsiU0fghnSnfU_7midimonNtB4_12MidiMacroPad14process_events0B4_
FNDA:0,_RNCNvMCsiU0fghnSnfU_7midimonNtB4_12MidiMacroPad3run0B4_
FNDA:0,_RNCNvMCsiU0fghnSnfU_7midimonNtB4_12MidiMacroPad7connect0B4_
FNDA:0,_RNCNvMCsiU0fghnSnfU_7midimonNtB4_12MidiMacroPad7connects_0B4_
FNDA:0,_RNCNvCs1X6iq6JsZQO_7midimon4main0B3_
FNDA:0,_RNCNvMCs1X6iq6JsZQO_7midimonNtB4_12MidiMacroPad14process_events0B4_
FNDA:0,_RNCNvMCs1X6iq6JsZQO_7midimonNtB4_12MidiMacroPad3run0B4_
FNDA:0,_RNCNvMCs1X6iq6JsZQO_7midimonNtB4_12MidiMacroPad7connect0B4_
FNDA:0,_RNCNvMCs1X6iq6JsZQO_7midimonNtB4_12MidiMacroPad7connects_0B4_
FNDA:0,_RNvCs1X6iq6JsZQO_7midimon4main
FNDA:0,_RNvMCs1X6iq6JsZQO_7midimonNtB2_12MidiMacroPad14process_events
FNDA:0,_RNvMCs1X6iq6JsZQO_7midimonNtB2_12MidiMacroPad15list_midi_ports
FNDA:0,_RNvMCs1X6iq6JsZQO_7midimonNtB2_12MidiMacroPad17check_mode_change
FNDA:0,_RNvMCs1X6iq6JsZQO_7midimonNtB2_12MidiMacroPad3new
FNDA:0,_RNvMCs1X6iq6JsZQO_7midimonNtB2_12MidiMacroPad3run
FNDA:0,_RNvMCs1X6iq6JsZQO_7midimonNtB2_12MidiMacroPad7connect
FNDA:0,_RNvMCs1X6iq6JsZQO_7midimonNtB2_12MidiMacroPad9log_event
FNF:13
FNH:0
DA:39,0
DA:40,0
DA:42,0
DA:43,0
DA:44,0
DA:45,0
DA:46,0
DA:47,0
DA:48,0
DA:49,0
DA:50,0
DA:52,0
DA:53,0
DA:55,0
DA:56,0
DA:58,0
DA:59,0
DA:60,0
DA:61,0
DA:64,0
DA:65,0
DA:66,0
DA:68,0
DA:69,0
DA:71,0
DA:72,0
DA:73,0
DA:75,0
DA:76,0
DA:77,0
DA:79,0
DA:80,0
DA:82,0
DA:84,0
DA:85,0
DA:88,0
DA:89,0
DA:90,0
DA:91,0
DA:92,0
DA:93,0
DA:94,0
DA:95,0
DA:96,0
DA:97,0
DA:98,0
DA:99,0
DA:100,0
DA:101,0
DA:102,0
DA:103,0
DA:106,0
DA:107,0
DA:108,0
DA:109,0
DA:110,0
DA:111,0
DA:113,0
DA:116,0
DA:117,0
DA:118,0
DA:120,0
DA:121,0
DA:122,0
DA:124,0
DA:125,0
DA:127,0
DA:128,0
DA:129,0
DA:130,0
DA:131,0
DA:132,0
DA:133,0
DA:134,0
DA:137,0
DA:139,0
DA:140,0
DA:141,0
DA:142,0
DA:145,0
DA:148,0
DA:149,0
DA:150,0
DA:151,0
DA:152,0
DA:153,0
DA:154,0
DA:155,0
DA:157,0
DA:158,0
DA:161,0
DA:162,0
DA:163,0
DA:165,0
DA:166,0
DA:169,0
DA:171,0
DA:172,0
DA:173,0
DA:175,0
DA:176,0
DA:177,0
DA:179,0
DA:180,0
DA:182,0
DA:183,0
DA:185,0
DA:186,0
DA:190,0
DA:191,0
DA:193,0
DA:195,0
DA:196,0
DA:197,0
DA:198,0
DA:200,0
DA:203,0
DA:205,0
DA:207,0
DA:208,0
DA:209,0
DA:212,0
DA:213,0
DA:214,0
DA:215,0
DA:217,0
DA:218,0
DA:219,0
DA:221,0
DA:222,0
DA:223,0
DA:226,0
DA:227,0
DA:228,0
DA:229,0
DA:230,0
DA:232,0
DA:235,0
DA:238,0
DA:239,0
DA:240,0
DA:241,0
DA:243,0
DA:244,0
DA:246,0
DA:247,0
BRF:0
BRH:0
LF:151
LH:0
end_of_record
SF:/Users/christopherjoseph/projects/amiable/midimon/src/mappings.rs
FN:79,_RNvMNtCsiU0fghnSnfU_7midimon8mappingsNtB2_13MappingEngine10get_action
FN:53,_RNvMNtCsiU0fghnSnfU_7midimon8mappingsNtB2_13MappingEngine15compile_mapping
FN:107,_RNvMNtCsiU0fghnSnfU_7midimon8mappingsNtB2_13MappingEngine15trigger_matches
FN:35,_RNvMNtCsiU0fghnSnfU_7midimon8mappingsNtB2_13MappingEngine16load_from_config
FN:91,_RNvMNtCsiU0fghnSnfU_7midimon8mappingsNtB2_13MappingEngine20find_matching_action
FN:28,_RNvMNtCsiU0fghnSnfU_7midimon8mappingsNtB2_13MappingEngine3new
FN:40,_RNCNvMNtCsiU0fghnSnfU_7midimon8mappingsNtB4_13MappingEngine16load_from_config0B6_
FN:49,_RNCNvMNtCsiU0fghnSnfU_7midimon8mappingsNtB4_13MappingEngine16load_from_configs_0B6_
FN:40,_RNCNvMNtCs1X6iq6JsZQO_7midimon8mappingsNtB4_13MappingEngine16load_from_config0B6_
FN:49,_RNCNvMNtCs1X6iq6JsZQO_7midimon8mappingsNtB4_13MappingEngine16load_from_configs_0B6_
FN:79,_RNvMNtCs1X6iq6JsZQO_7midimon8mappingsNtB2_13MappingEngine10get_action
FN:53,_RNvMNtCs1X6iq6JsZQO_7midimon8mappingsNtB2_13MappingEngine15compile_mapping
FN:107,_RNvMNtCs1X6iq6JsZQO_7midimon8mappingsNtB2_13MappingEngine15trigger_matches
FN:35,_RNvMNtCs1X6iq6JsZQO_7midimon8mappingsNtB2_13MappingEngine16load_from_config
FN:91,_RNvMNtCs1X6iq6JsZQO_7midimon8mappingsNtB2_13MappingEngine20find_matching_action
FN:28,_RNvMNtCs1X6iq6JsZQO_7midimon8mappingsNtB2_13MappingEngine3new
FNDA:0,_RNvMNtCsiU0fghnSnfU_7midimon8mappingsNtB2_13MappingEngine10get_action
FNDA:0,_RNvMNtCsiU0fghnSnfU_7midimon8mappingsNtB2_13MappingEngine15compile_mapping
FNDA:0,_RNvMNtCsiU0fghnSnfU_7midimon8mappingsNtB2_13MappingEngine15trigger_matches
FNDA:0,_RNvMNtCsiU0fghnSnfU_7midimon8mappingsNtB2_13MappingEngine16load_from_config
FNDA:0,_RNvMNtCsiU0fghnSnfU_7midimon8mappingsNtB2_13MappingEngine20find_matching_action
FNDA:0,_RNvMNtCsiU0fghnSnfU_7midimon8mappingsNtB2_13MappingEngine3new
FNDA:0,_RNCNvMNtCsiU0fghnSnfU_7midimon8mappingsNtB4_13MappingEngine16load_from_config0B6_
FNDA:0,_RNCNvMNtCsiU0fghnSnfU_7midimon8mappingsNtB4_13MappingEngine16load_from_configs_0B6_
FNDA:0,_RNCNvMNtCs1X6iq6JsZQO_7midimon8mappingsNtB4_13MappingEngine16load_from_config0B6_
FNDA:0,_RNCNvMNtCs1X6iq6JsZQO_7midimon8mappingsNtB4_13MappingEngine16load_from_configs_0B6_
FNDA:0,_RNvMNtCs1X6iq6JsZQO_7midimon8mappingsNtB2_13MappingEngine10get_action
FNDA:0,_RNvMNtCs1X6iq6JsZQO_7midimon8mappingsNtB2_13MappingEngine15compile_mapping
FNDA:0,_RNvMNtCs1X6iq6JsZQO_7midimon8mappingsNtB2_13MappingEngine15trigger_matches
FNDA:0,_RNvMNtCs1X6iq6JsZQO_7midimon8mappingsNtB2_13MappingEngine16load_from_config
FNDA:0,_RNvMNtCs1X6iq6JsZQO_7midimon8mappingsNtB2_13MappingEngine20find_matching_action
FNDA:0,_RNvMNtCs1X6iq6JsZQO_7midimon8mappingsNtB2_13MappingEngine3new
FNF:8
FNH:0
DA:28,0
DA:29,0
DA:30,0
DA:31,0
DA:32,0
DA:33,0
DA:35,0
DA:37,0
DA:38,0
DA:39,0
DA:40,0
DA:41,0
DA:43,0
DA:47,0
DA:48,0
DA:49,0
DA:50,0
DA:51,0
DA:53,0
DA:55,0
DA:56,0
DA:57,0
DA:58,0
DA:59,0
DA:60,0
DA:62,0
DA:63,0
DA:64,0
DA:65,0
DA:66,0
DA:68,0
DA:69,0
DA:70,0
DA:71,0
DA:74,0
DA:75,0
DA:77,0
DA:79,0
DA:81,0
DA:82,0
DA:83,0
DA:84,0
DA:85,0
DA:88,0
DA:89,0
DA:91,0
DA:92,0
DA:93,0
DA:94,0
DA:95,0
DA:96,0
DA:97,0
DA:98,0
DA:99,0
DA:100,0
DA:101,0
DA:102,0
DA:104,0
DA:105,0
DA:107,0
DA:108,0
DA:110,0
DA:111,0
DA:113,0
DA:116,0
DA:117,0
DA:119,0
DA:121,0
DA:123,0
BRF:0
BRH:0
LF:71
LH:0
end_of_record